; Function Attrs: nounwind uwtable
define hidden void @initializeISA(ptr noundef %0) local_unnamed_addr #1 {
  %2 = load ptr, ptr @isaCls, align 8
  %3 = icmp eq ptr %2, null
  br i1 %3, label %4, label %26

4:                                                ; preds = %1
  %5 = load ptr, ptr %0, align 8
  %6 = getelementptr inbounds i8, ptr %5, i64 48
  %7 = load ptr, ptr %6, align 8
  %8 = tail call ptr %7(ptr noundef nonnull %0, ptr noundef nonnull @.str.14) #10
  %9 = icmp eq ptr %8, null
  br i1 %9, label %26, label %10

10:                                               ; preds = %4
  %11 = load ptr, ptr %0, align 8
  %12 = getelementptr inbounds i8, ptr %11, i64 264
  %13 = load ptr, ptr %12, align 8
  %14 = tail call ptr %13(ptr noundef nonnull %0, ptr noundef nonnull %8, ptr noundef nonnull @.str.15, ptr noundef nonnull @.str.16) #10
  store ptr %14, ptr @isaCtrID, align 8
  %15 = icmp eq ptr %14, null
  br i1 %15, label %26, label %16

16:                                               ; preds = %10
  %17 = load ptr, ptr %0, align 8
  %18 = getelementptr inbounds i8, ptr %17, i64 168
  %19 = load ptr, ptr %18, align 8
  %20 = tail call ptr %19(ptr noundef nonnull %0, ptr noundef nonnull %8) #10
  store ptr %20, ptr @isaCls, align 8
  %21 = icmp eq ptr %20, null
  br i1 %21, label %26, label %22

22:                                               ; preds = %16
  %23 = load ptr, ptr %0, align 8
  %24 = getelementptr inbounds i8, ptr %23, i64 184
  %25 = load ptr, ptr %24, align 8
  tail call void %25(ptr noundef nonnull %0, ptr noundef nonnull %8) #10
  br label %26

26:                                               ; preds = %16, %10, %4, %22, %1
  ret void
}